target datalayout = "e-m:e-p270:32:32-p271:32:32-p272:64:64-i64:64-i128:128-f80:128-n8:16:32:64-S128"
target triple = "x86_64-pc-linux-gnu"

%struct.AVRational = type { i32, i32 }
%struct.AVFrameSideData = type { i32, ptr, i64, ptr, ptr }
%struct.AVContentLightMetadata = type { i32, i32 }
%struct.AVMasteringDisplayMetadata = type { [3 x [2 x %struct.AVRational]], [2 x %struct.AVRational], %struct.AVRational, %struct.AVRational, i32, i32 }
%struct.AVFrame = type { [8 x ptr], [8 x i32], ptr, i32, i32, i32, i32, i32, %struct.AVRational, i64, i64, %struct.AVRational, i32, ptr, i32, i32, [8 x ptr], ptr, i32, ptr, i32, i32, i32, i32, i32, i32, i32, i64, ptr, i32, ptr, ptr, i64, i64, i64, i64, ptr, %struct.AVChannelLayout, i64 }
%struct.AVChannelLayout = type { i32, i32, %union.anon, ptr }
%union.anon = type { i64 }

; Function Attrs: inlinehint nounwind uwtable
define internal double @av_q2d(i64 %0) #3 {
  %2 = alloca %struct.AVRational, align 4
  store i64 %0, ptr %2, align 4
  %3 = getelementptr inbounds nuw %struct.AVRational, ptr %2, i32 0, i32 0
  %4 = load i32, ptr %3, align 4, !tbaa !23
  %5 = sitofp i32 %4 to double
  %6 = getelementptr inbounds nuw %struct.AVRational, ptr %2, i32 0, i32 1
  %7 = load i32, ptr %6, align 4, !tbaa !25
  %8 = sitofp i32 %7 to double
  %9 = fdiv nsz double %5, %8
  ret double %9
}

; Function Attrs: nounwind uwtable
define double @ff_determine_signal_peak(ptr noundef %0) #0 {
  %2 = alloca ptr, align 8
  %3 = alloca ptr, align 8
  %4 = alloca double, align 8
  %5 = alloca ptr, align 8
  %6 = alloca ptr, align 8
  store ptr %0, ptr %2, align 8, !tbaa !28
  call void @llvm.lifetime.start.p0(i64 8, ptr %3) #7
  %7 = load ptr, ptr %2, align 8, !tbaa !28
  %8 = call ptr @av_frame_get_side_data(ptr noundef %7, i32 noundef 14)
  store ptr %8, ptr %3, align 8, !tbaa !30
  call void @llvm.lifetime.start.p0(i64 8, ptr %4) #7
  store double 0.000000e+00, ptr %4, align 8, !tbaa !9
  %9 = load ptr, ptr %3, align 8, !tbaa !30
  %10 = icmp ne ptr %9, null
  br i1 %10, label %11, label %21

11:                                               ; preds = %1
  call void @llvm.lifetime.start.p0(i64 8, ptr %5) #7
  %12 = load ptr, ptr %3, align 8, !tbaa !30
  %13 = getelementptr inbounds nuw %struct.AVFrameSideData, ptr %12, i32 0, i32 1
  %14 = load ptr, ptr %13, align 8, !tbaa !32
  store ptr %14, ptr %5, align 8, !tbaa !38
  %15 = load ptr, ptr %5, align 8, !tbaa !38
  %16 = getelementptr inbounds nuw %struct.AVContentLightMetadata, ptr %15, i32 0, i32 0
  %17 = load i32, ptr %16, align 4, !tbaa !40
  %18 = uitofp i32 %17 to float
  %19 = fdiv nsz float %18, 1.000000e+02
  %20 = fpext nsz float %19 to double
  store double %20, ptr %4, align 8, !tbaa !9
  call void @llvm.lifetime.end.p0(i64 8, ptr %5) #7
  br label %21

21:                                               ; preds = %11, %1
  %22 = load ptr, ptr %2, align 8, !tbaa !28
  %23 = call ptr @av_frame_get_side_data(ptr noundef %22, i32 noundef 11)
  store ptr %23, ptr %3, align 8, !tbaa !30
  %24 = load double, ptr %4, align 8, !tbaa !9
  %25 = fcmp nsz une double %24, 0.000000e+00
  br i1 %25, label %44, label %26

26:                                               ; preds = %21
  %27 = load ptr, ptr %3, align 8, !tbaa !30
  %28 = icmp ne ptr %27, null
  br i1 %28, label %29, label %44

29:                                               ; preds = %26
  call void @llvm.lifetime.start.p0(i64 8, ptr %6) #7
  %30 = load ptr, ptr %3, align 8, !tbaa !30
  %31 = getelementptr inbounds nuw %struct.AVFrameSideData, ptr %30, i32 0, i32 1
  %32 = load ptr, ptr %31, align 8, !tbaa !32
  store ptr %32, ptr %6, align 8, !tbaa !42
  %33 = load ptr, ptr %6, align 8, !tbaa !42
  %34 = getelementptr inbounds nuw %struct.AVMasteringDisplayMetadata, ptr %33, i32 0, i32 5
  %35 = load i32, ptr %34, align 4, !tbaa !44
  %36 = icmp ne i32 %35, 0
  br i1 %36, label %37, label %43

37:                                               ; preds = %29
  %38 = load ptr, ptr %6, align 8, !tbaa !42
  %39 = getelementptr inbounds nuw %struct.AVMasteringDisplayMetadata, ptr %38, i32 0, i32 3
  %40 = load i64, ptr %39, align 4
  %41 = call nsz double @av_q2d(i64 %40)
  %42 = fdiv nsz double %41, 1.000000e+02
  store double %42, ptr %4, align 8, !tbaa !9
  br label %43

43:                                               ; preds = %37, %29
  call void @llvm.lifetime.end.p0(i64 8, ptr %6) #7
  br label %44

44:                                               ; preds = %43, %26, %21
  %45 = load double, ptr %4, align 8, !tbaa !9
  %46 = fcmp nsz une double %45, 0.000000e+00
  br i1 %46, label %54, label %47

47:                                               ; preds = %44
  %48 = load ptr, ptr %2, align 8, !tbaa !28
  %49 = getelementptr inbounds nuw %struct.AVFrame, ptr %48, i32 0, i32 24
  %50 = load i32, ptr %49, align 8, !tbaa !46
  %51 = icmp eq i32 %50, 16
  %52 = select nsz i1 %51, float 1.000000e+02, float 1.000000e+01
  %53 = fpext nsz float %52 to double
  store double %53, ptr %4, align 8, !tbaa !9
  br label %54

54:                                               ; preds = %47, %44
  %55 = load double, ptr %4, align 8, !tbaa !9
  call void @llvm.lifetime.end.p0(i64 8, ptr %4) #7
  call void @llvm.lifetime.end.p0(i64 8, ptr %3) #7
  ret double %55
}