; Function Attrs: nounwind uwtable
define double @ff_determine_signal_peak(ptr noundef %0) local_unnamed_addr #5 {
  %2 = tail call ptr @av_frame_get_side_data(ptr noundef %0, i32 noundef 14) #8
  %.not = icmp eq ptr %2, null
  br i1 %.not, label %10, label %3

3:                                                ; preds = %1
  %4 = getelementptr inbounds nuw i8, ptr %2, i64 8
  %5 = load ptr, ptr %4, align 8, !tbaa !14
  %6 = load i32, ptr %5, align 4, !tbaa !22
  %7 = uitofp i32 %6 to float
  %8 = fdiv nsz float %7, 1.000000e+02
  %9 = fpext nsz float %8 to double
  br label %10

10:                                               ; preds = %3, %1
  %.0 = phi nsz double [ %9, %3 ], [ 0.000000e+00, %1 ]
  %11 = tail call ptr @av_frame_get_side_data(ptr noundef %0, i32 noundef 11) #8
  %12 = fcmp nsz oeq double %.0, 0.000000e+00
  %13 = icmp ne ptr %11, null
  %or.cond = select i1 %12, i1 %13, i1 false
  br i1 %or.cond, label %14, label %26

14:                                               ; preds = %10
  %15 = getelementptr inbounds nuw i8, ptr %11, i64 8
  %16 = load ptr, ptr %15, align 8, !tbaa !14
  %17 = getelementptr inbounds nuw i8, ptr %16, i64 84
  %18 = load i32, ptr %17, align 4, !tbaa !24
  %.not16 = icmp eq i32 %18, 0
  br i1 %.not16, label %26, label %19

19:                                               ; preds = %14
  %20 = getelementptr inbounds nuw i8, ptr %16, i64 72
  %21 = load i64, ptr %20, align 4
  %.sroa.0.0.extract.trunc.i = trunc i64 %21 to i32
  %.sroa.2.0.extract.shift.i = lshr i64 %21, 32
  %.sroa.2.0.extract.trunc.i = trunc nuw i64 %.sroa.2.0.extract.shift.i to i32
  %22 = sitofp i32 %.sroa.0.0.extract.trunc.i to double
  %23 = sitofp i32 %.sroa.2.0.extract.trunc.i to double
  %24 = fdiv nsz double %22, %23
  %25 = fdiv nsz double %24, 1.000000e+02
  br label %26

26:                                               ; preds = %14, %19, %10
  %.1 = phi nsz double [ %.0, %10 ], [ %25, %19 ], [ %.0, %14 ]
  %27 = fcmp nsz une double %.1, 0.000000e+00
  br i1 %27, label %33, label %28

28:                                               ; preds = %26
  %29 = getelementptr inbounds nuw i8, ptr %0, i64 288
  %30 = load i32, ptr %29, align 8, !tbaa !27
  %31 = icmp eq i32 %30, 16
  %32 = select i1 %31, double 1.000000e+02, double 1.000000e+01
  br label %33

33:                                               ; preds = %28, %26
  %.3 = phi nsz double [ %.1, %26 ], [ %32, %28 ]
  ret double %.3
}